target datalayout = "e-m:e-p270:32:32-p271:32:32-p272:64:64-i64:64-i128:128-f80:128-n8:16:32:64-S128"
target triple = "x86_64-pc-linux-gnu"

@.str.221 = private unnamed_addr constant [8 x i8] c"%s %s (\00", align 1
@.str.222 = private unnamed_addr constant [6 x i8] c"token\00", align 1
@.str.223 = private unnamed_addr constant [6 x i8] c"nterm\00", align 1
@.str.224 = private unnamed_addr constant [2 x i8] c")\00", align 1

; Function Attrs: mustprogress nounwind uwtable
define internal void @_ZL21yy_symbol_value_printP8_IO_FILE15yysymbol_kind_tPK7YYSTYPEPN7glslang13TParseContextE(ptr noundef %0, i32 noundef %1, ptr noundef %2, ptr noundef %3) #0 {
  %5 = alloca ptr, align 8
  %6 = alloca i32, align 4
  %7 = alloca ptr, align 8
  %8 = alloca ptr, align 8
  %9 = alloca ptr, align 8
  store ptr %0, ptr %5, align 8
  store i32 %1, ptr %6, align 4
  store ptr %2, ptr %7, align 8
  store ptr %3, ptr %8, align 8
  %10 = load ptr, ptr %5, align 8
  store ptr %10, ptr %9, align 8
  %11 = load ptr, ptr %7, align 8
  %12 = icmp ne ptr %11, null
  br i1 %12, label %14, label %13

13:                                               ; preds = %4
  br label %14

14:                                               ; preds = %13, %4
  ret void
}

; Function Attrs: mustprogress nounwind uwtable
define internal noundef ptr @_ZL13yysymbol_name15yysymbol_kind_t(i32 noundef %0) #0 {
  %2 = alloca i32, align 4
  store i32 %0, ptr %2, align 4
  %3 = load i32, ptr %2, align 4
  %4 = sext i32 %3 to i64
  %5 = getelementptr inbounds [598 x ptr], ptr @_ZL7yytname, i64 0, i64 %4
  %6 = load ptr, ptr %5, align 8
  ret ptr %6
}

; Function Attrs: mustprogress nounwind uwtable
define internal void @_ZL15yy_symbol_printP8_IO_FILE15yysymbol_kind_tPK7YYSTYPEPN7glslang13TParseContextE(ptr noundef %0, i32 noundef %1, ptr noundef %2, ptr noundef %3) #0 {
  %5 = alloca ptr, align 8
  %6 = alloca i32, align 4
  %7 = alloca ptr, align 8
  %8 = alloca ptr, align 8
  store ptr %0, ptr %5, align 8
  store i32 %1, ptr %6, align 4
  store ptr %2, ptr %7, align 8
  store ptr %3, ptr %8, align 8
  %9 = load ptr, ptr %5, align 8
  %10 = load i32, ptr %6, align 4
  %11 = icmp slt i32 %10, 465
  br i1 %11, label %12, label %13

12:                                               ; preds = %4
  br label %14

13:                                               ; preds = %4
  br label %14

14:                                               ; preds = %13, %12
  %15 = phi ptr [ @.str.222, %12 ], [ @.str.223, %13 ]
  %16 = getelementptr inbounds [6 x i8], ptr %15, i64 0, i64 0
  %17 = load i32, ptr %6, align 4
  %18 = call noundef ptr @_ZL13yysymbol_name15yysymbol_kind_t(i32 noundef %17)
  %19 = call i32 (ptr, ptr, ...) @fprintf(ptr noundef %9, ptr noundef @.str.221, ptr noundef %16, ptr noundef %18) #12
  %20 = load ptr, ptr %5, align 8
  %21 = load i32, ptr %6, align 4
  %22 = load ptr, ptr %7, align 8
  %23 = load ptr, ptr %8, align 8
  call void @_ZL21yy_symbol_value_printP8_IO_FILE15yysymbol_kind_tPK7YYSTYPEPN7glslang13TParseContextE(ptr noundef %20, i32 noundef %21, ptr noundef %22, ptr noundef %23)
  %24 = load ptr, ptr %5, align 8
  %25 = call i32 (ptr, ptr, ...) @fprintf(ptr noundef %24, ptr noundef @.str.224) #12
  ret void
}