; Function Attrs: mustprogress nofree nounwind uwtable
define internal fastcc void @_ZL15yy_symbol_printP8_IO_FILE15yysymbol_kind_tPK7YYSTYPEPN7glslang13TParseContextE(ptr nocapture noundef %0, i32 noundef %1) unnamed_addr #6 {
  %3 = icmp slt i32 %1, 465
  %.str.222..str.223 = select i1 %3, ptr @.str.222, ptr @.str.223
  %4 = sext i32 %1 to i64
  %5 = getelementptr inbounds [598 x ptr], ptr @_ZL7yytname, i64 0, i64 %4
  %6 = load ptr, ptr %5, align 8
  %7 = tail call i32 (ptr, ptr, ...) @fprintf(ptr noundef %0, ptr noundef nonnull @.str.221, ptr noundef nonnull %.str.222..str.223, ptr noundef %6) #24
  %fputc = tail call i32 @fputc(i32 41, ptr %0)
  ret void
}